; Function Attrs: mustprogress nofree norecurse nosync nounwind willreturn memory(read, argmem: readwrite, inaccessiblemem: none) uwtable
define void @_ZN5draco27PointCloudSequentialEncoder28ComputeNumberOfEncodedPointsEv(ptr nocapture noundef nonnull align 8 dereferenceable(112) %0) unnamed_addr #6 align 2 {
  %2 = getelementptr inbounds i8, ptr %0, i64 8
  %3 = load ptr, ptr %2, align 8
  %4 = getelementptr inbounds i8, ptr %3, i64 160
  %5 = load i32, ptr %4, align 8
  %6 = zext i32 %5 to i64
  %7 = getelementptr inbounds i8, ptr %0, i64 104
  store i64 %6, ptr %7, align 8
  ret void
}